; Function Attrs: mustprogress uwtable
define hidden void @_ZN6google8protobuf2io25CopyingInputStreamAdaptor10FreeBufferEv(ptr noundef nonnull align 8 captures(none) dereferenceable(52) %0) local_unnamed_addr #6 align 2 personality ptr @__gxx_personality_v0 {
  %2 = alloca %"class.google::protobuf::internal::LogMessage", align 8
  %3 = alloca %"class.google::protobuf::internal::LogFinisher", align 1
  %4 = getelementptr inbounds nuw i8, ptr %0, i64 48
  %5 = load i32, ptr %4, align 8, !tbaa !50
  %.not = icmp eq i32 %5, 0
  call void @llvm.lifetime.start.p0(i64 1, ptr nonnull %3) #19
  br i1 %.not, label %.thread, label %6

6:                                                ; preds = %1
  call void @llvm.lifetime.start.p0(i64 56, ptr nonnull %2) #19
  call void @_ZN6google8protobuf8internal10LogMessageC1ENS0_8LogLevelEPKci(ptr noundef nonnull align 8 dereferenceable(56) %2, i32 noundef 3, ptr noundef nonnull @.str, i32 noundef 292)
  %7 = invoke noundef nonnull align 8 dereferenceable(56) ptr @_ZN6google8protobuf8internal10LogMessagelsEPKc(ptr noundef nonnull align 8 dereferenceable(56) %2, ptr noundef nonnull @.str.12)
          to label %8 unwind label %13

8:                                                ; preds = %6
  invoke void @_ZN6google8protobuf8internal11LogFinisheraSERNS1_10LogMessageE(ptr noundef nonnull align 1 dereferenceable(1) %3, ptr noundef nonnull align 8 dereferenceable(56) %7)
          to label %9 unwind label %15

.thread:                                          ; preds = %1
  call void @llvm.lifetime.end.p0(i64 1, ptr nonnull %3) #19
  br label %.critedge11

9:                                                ; preds = %8
  call void @llvm.lifetime.end.p0(i64 1, ptr nonnull %3) #19
  call void @_ZN6google8protobuf8internal10LogMessageD1Ev(ptr noundef nonnull align 8 dereferenceable(56) %2) #19
  call void @llvm.lifetime.end.p0(i64 56, ptr nonnull %2) #19
  br label %.critedge11

.critedge11:                                      ; preds = %.thread, %9
  %10 = getelementptr inbounds nuw i8, ptr %0, i64 44
  store i32 0, ptr %10, align 4, !tbaa !49
  %11 = getelementptr inbounds nuw i8, ptr %0, i64 32
  %12 = load ptr, ptr %11, align 8, !tbaa !53
  store ptr null, ptr %11, align 8, !tbaa !53
  %.not.i.i.i = icmp eq ptr %12, null
  br i1 %.not.i.i.i, label %_ZNSt10unique_ptrIA_hSt14default_deleteIS0_EE5resetEDn.exit, label %_ZNKSt14default_deleteIA_hEclIhEENSt9enable_ifIXsr14is_convertibleIPA_T_PS0_EE5valueEvE4typeEPS4_.exit.i.i.i

_ZNKSt14default_deleteIA_hEclIhEENSt9enable_ifIXsr14is_convertibleIPA_T_PS0_EE5valueEvE4typeEPS4_.exit.i.i.i: ; preds = %.critedge11
  call void @_ZdaPv(ptr noundef nonnull %12) #20
  br label %_ZNSt10unique_ptrIA_hSt14default_deleteIS0_EE5resetEDn.exit

_ZNSt10unique_ptrIA_hSt14default_deleteIS0_EE5resetEDn.exit: ; preds = %.critedge11, %_ZNKSt14default_deleteIA_hEclIhEENSt9enable_ifIXsr14is_convertibleIPA_T_PS0_EE5valueEvE4typeEPS4_.exit.i.i.i
  ret void

13:                                               ; preds = %6
  %14 = landingpad { ptr, i32 }
          cleanup
  br label %17

15:                                               ; preds = %8
  %16 = landingpad { ptr, i32 }
          cleanup
  call void @llvm.lifetime.end.p0(i64 1, ptr nonnull %3) #19
  br label %17

17:                                               ; preds = %13, %15
  %.pn = phi { ptr, i32 } [ %16, %15 ], [ %14, %13 ]
  call void @_ZN6google8protobuf8internal10LogMessageD1Ev(ptr noundef nonnull align 8 dereferenceable(56) %2) #19
  call void @llvm.lifetime.end.p0(i64 56, ptr nonnull %2) #19
  resume { ptr, i32 } %.pn
}